target datalayout = "e-m:e-p270:32:32-p271:32:32-p272:64:64-i64:64-i128:128-f80:128-n8:16:32:64-S128"
target triple = "x86_64-pc-linux-gnu"

%struct.Qureg = type { i32, i32, i32, i64, i64, i32, i32, %struct.ComplexArray, %struct.ComplexArray, %struct.ComplexArray, ptr, ptr, ptr, ptr, ptr, ptr }
%struct.ComplexArray = type { ptr, ptr }

@__func__.multiRotateZ = private unnamed_addr constant [13 x i8] c"multiRotateZ\00", align 1
@.str.8 = private unnamed_addr constant [85 x i8] c"Here a %d-qubit multiRotateZ of angle %.14g was performed (QASM not yet implemented)\00", align 1

; Function Attrs: nounwind uwtable
define void @multiRotateZ(ptr noundef byval(%struct.Qureg) align 8 %0, ptr noundef %1, i32 noundef %2, double noundef %3) #0 {
  %5 = alloca ptr, align 8
  %6 = alloca i32, align 4
  %7 = alloca double, align 8
  %8 = alloca i64, align 8
  %9 = alloca i32, align 4
  store ptr %1, ptr %5, align 8, !tbaa !27
  store i32 %2, ptr %6, align 4, !tbaa !4
  store double %3, ptr %7, align 8, !tbaa !25
  %10 = load ptr, ptr %5, align 8, !tbaa !27
  %11 = load i32, ptr %6, align 4, !tbaa !4
  call void @validateMultiTargets(ptr noundef byval(%struct.Qureg) align 8 %0, ptr noundef %10, i32 noundef %11, ptr noundef @__func__.multiRotateZ)
  call void @llvm.lifetime.start.p0(i64 8, ptr %8) #7
  %12 = load ptr, ptr %5, align 8, !tbaa !27
  %13 = load i32, ptr %6, align 4, !tbaa !4
  %14 = call i64 @getQubitBitMask(ptr noundef %12, i32 noundef %13)
  store i64 %14, ptr %8, align 8, !tbaa !22
  %15 = load i64, ptr %8, align 8, !tbaa !22
  %16 = load double, ptr %7, align 8, !tbaa !25
  call void @statevec_multiRotateZ(ptr noundef byval(%struct.Qureg) align 8 %0, i64 noundef %15, double noundef %16)
  %17 = getelementptr inbounds nuw %struct.Qureg, ptr %0, i32 0, i32 0
  %18 = load i32, ptr %17, align 8, !tbaa !13
  %19 = icmp ne i32 %18, 0
  br i1 %19, label %20, label %29

20:                                               ; preds = %4
  call void @llvm.lifetime.start.p0(i64 4, ptr %9) #7
  %21 = getelementptr inbounds nuw %struct.Qureg, ptr %0, i32 0, i32 1
  %22 = load i32, ptr %21, align 4, !tbaa !18
  store i32 %22, ptr %9, align 4, !tbaa !4
  %23 = load i64, ptr %8, align 8, !tbaa !22
  %24 = load i32, ptr %9, align 4, !tbaa !4
  %25 = zext i32 %24 to i64
  %26 = shl i64 %23, %25
  %27 = load double, ptr %7, align 8, !tbaa !25
  %28 = fneg double %27
  call void @statevec_multiRotateZ(ptr noundef byval(%struct.Qureg) align 8 %0, i64 noundef %26, double noundef %28)
  call void @llvm.lifetime.end.p0(i64 4, ptr %9) #7
  br label %29

29:                                               ; preds = %20, %4
  %30 = load i32, ptr %6, align 4, !tbaa !4
  %31 = load double, ptr %7, align 8, !tbaa !25
  call void (ptr, ptr, ...) @qasm_recordComment(ptr noundef byval(%struct.Qureg) align 8 %0, ptr noundef @.str.8, i32 noundef %30, double noundef %31)
  call void @llvm.lifetime.end.p0(i64 8, ptr %8) #7
  ret void
}