; Function Attrs: nounwind uwtable
define void @multiRotateZ(ptr noundef readonly byval(%struct.Qureg) align 8 captures(none) %0, ptr noundef %1, i32 noundef %2, double noundef %3) local_unnamed_addr #0 {
  tail call void @validateMultiTargets(ptr noundef nonnull byval(%struct.Qureg) align 8 %0, ptr noundef %1, i32 noundef %2, ptr noundef nonnull @__func__.multiRotateZ) #17
  %5 = tail call i64 @getQubitBitMask(ptr noundef %1, i32 noundef %2) #17
  tail call void @statevec_multiRotateZ(ptr noundef nonnull byval(%struct.Qureg) align 8 %0, i64 noundef %5, double noundef %3) #17
  %6 = load i32, ptr %0, align 8, !tbaa !12
  %.not = icmp eq i32 %6, 0
  br i1 %.not, label %13, label %7

7:                                                ; preds = %4
  %8 = getelementptr inbounds nuw i8, ptr %0, i64 4
  %9 = load i32, ptr %8, align 4, !tbaa !17
  %10 = zext nneg i32 %9 to i64
  %11 = shl i64 %5, %10
  %12 = fneg double %3
  tail call void @statevec_multiRotateZ(ptr noundef nonnull byval(%struct.Qureg) align 8 %0, i64 noundef %11, double noundef %12) #17
  br label %13

13:                                               ; preds = %7, %4
  tail call void (ptr, ptr, ...) @qasm_recordComment(ptr noundef nonnull byval(%struct.Qureg) align 8 %0, ptr noundef nonnull @.str.8, i32 noundef %2, double noundef %3) #17
  ret void
}